ccopy_reg
_reconstructor
p0
(cgoogle.oauth2.credentials
Credentials
p1
c__builtin__
object
p2
Ntp3
Rp4
(dp5
S'_quota_project_id'
p6
NsS'_token_uri'
p7
Vhttps://oauth2.googleapis.com/token
p8
sS'_client_secret'
p9
VxiOQ3qUMd7V_hh4-YrboLhG4
p10
sS'_id_token'
p11
NsS'token'
p12
Vya29.a0AfH6SMCw4yhqt-C_kdCram4tjc0DKi2sefspQ08ACUmjc-G0uSeHdARSNMj7BbvsEPNurLapk9U4OxrQO0Gq-1OuR_MpstpkhBMvOwaO-zELOOeqZr_ZWDGaIGgngyI8yPrdg-H7K5VvtzCyrMpm-noZAWpvLug7XjT5
p13
sS'_refresh_token'
p14
V1//062CkO_0uukGeCgYIARAAGAYSNgF-L9IroqkYo2V7zs3IyIJKEhZ8VvVpl-j4zwKHlh5pTDwBdJbeex912VD5dbujAoaN_VcWOQ
p15
sS'_scopes'
p16
(lp17
S'https://www.googleapis.com/auth/gmail.readonly'
p18
asS'_client_id'
p19
V326896138089-30kk2232rsmundm1iqdsorshjecpntgv.apps.googleusercontent.com
p20
sS'expiry'
p21
cdatetime
datetime
p22
(S'\x07\xe4\t\x0c\x143\x00\x0c`\xf6'
p23
tp24
Rp25
sb.